target datalayout = "e-m:e-p270:32:32-p271:32:32-p272:64:64-i64:64-i128:128-f80:128-n8:16:32:64-S128"
target triple = "x86_64-pc-linux-gnu"

%struct.mbedtls_error_pair_t = type { i16, i16 }

; Function Attrs: nounwind uwtable
define hidden i32 @psa_status_to_mbedtls(i32 noundef %0, ptr noundef %1, i64 noundef %2, ptr noundef %3) #0 {
  %5 = alloca i32, align 4
  %6 = alloca i32, align 4
  %7 = alloca ptr, align 8
  %8 = alloca i64, align 8
  %9 = alloca ptr, align 8
  %10 = alloca i64, align 8
  %11 = alloca i32, align 4
  store i32 %0, ptr %6, align 4, !tbaa !3
  store ptr %1, ptr %7, align 8, !tbaa !7
  store i64 %2, ptr %8, align 8, !tbaa !9
  store ptr %3, ptr %9, align 8, !tbaa !7
  call void @llvm.lifetime.start.p0(i64 8, ptr %10) #5
  store i64 0, ptr %10, align 8, !tbaa !9
  br label %12

12:                                               ; preds = %34, %4
  %13 = load i64, ptr %10, align 8, !tbaa !9
  %14 = load i64, ptr %8, align 8, !tbaa !9
  %15 = icmp ult i64 %13, %14
  br i1 %15, label %17, label %16

16:                                               ; preds = %12
  store i32 2, ptr %11, align 4
  br label %37

17:                                               ; preds = %12
  %18 = load i32, ptr %6, align 4, !tbaa !3
  %19 = load ptr, ptr %7, align 8, !tbaa !7
  %20 = load i64, ptr %10, align 8, !tbaa !9
  %21 = getelementptr inbounds nuw %struct.mbedtls_error_pair_t, ptr %19, i64 %20
  %22 = getelementptr inbounds nuw %struct.mbedtls_error_pair_t, ptr %21, i32 0, i32 0
  %23 = load i16, ptr %22, align 2, !tbaa !11
  %24 = sext i16 %23 to i32
  %25 = icmp eq i32 %18, %24
  br i1 %25, label %26, label %33

26:                                               ; preds = %17
  %27 = load ptr, ptr %7, align 8, !tbaa !7
  %28 = load i64, ptr %10, align 8, !tbaa !9
  %29 = getelementptr inbounds nuw %struct.mbedtls_error_pair_t, ptr %27, i64 %28
  %30 = getelementptr inbounds nuw %struct.mbedtls_error_pair_t, ptr %29, i32 0, i32 1
  %31 = load i16, ptr %30, align 2, !tbaa !14
  %32 = sext i16 %31 to i32
  store i32 %32, ptr %5, align 4
  store i32 1, ptr %11, align 4
  br label %37

33:                                               ; preds = %17
  br label %34

34:                                               ; preds = %33
  %35 = load i64, ptr %10, align 8, !tbaa !9
  %36 = add i64 %35, 1
  store i64 %36, ptr %10, align 8, !tbaa !9
  br label %12, !llvm.loop !15

37:                                               ; preds = %26, %16
  call void @llvm.lifetime.end.p0(i64 8, ptr %10) #5
  %38 = load i32, ptr %11, align 4
  switch i32 %38, label %45 [
    i32 2, label %39
    i32 1, label %43
  ]

39:                                               ; preds = %37
  %40 = load ptr, ptr %9, align 8, !tbaa !7
  %41 = load i32, ptr %6, align 4, !tbaa !3
  %42 = call i32 %40(i32 noundef %41)
  store i32 %42, ptr %5, align 4
  br label %43

43:                                               ; preds = %39, %37
  %44 = load i32, ptr %5, align 4
  ret i32 %44

45:                                               ; preds = %37
  unreachable
}