; Function Attrs: nounwind uwtable
define hidden i32 @psa_status_to_mbedtls(i32 noundef %0, ptr noundef readonly captures(none) %1, i64 noundef %2, ptr noundef readonly captures(none) %3) local_unnamed_addr #1 {
  %.not = icmp eq i64 %2, 0
  br i1 %.not, label %._crit_edge, label %.lr.ph

.lr.ph:                                           ; preds = %4, %9
  %.01117 = phi i64 [ %10, %9 ], [ 0, %4 ]
  %5 = getelementptr inbounds nuw %struct.mbedtls_error_pair_t, ptr %1, i64 %.01117
  %6 = load i16, ptr %5, align 2, !tbaa !3
  %7 = sext i16 %6 to i32
  %8 = icmp eq i32 %0, %7
  br i1 %8, label %11, label %9

9:                                                ; preds = %.lr.ph
  %10 = add nuw i64 %.01117, 1
  %exitcond.not = icmp eq i64 %10, %2
  br i1 %exitcond.not, label %._crit_edge, label %.lr.ph, !llvm.loop !8

11:                                               ; preds = %.lr.ph
  %12 = getelementptr inbounds nuw %struct.mbedtls_error_pair_t, ptr %1, i64 %.01117, i32 1
  %13 = load i16, ptr %12, align 2, !tbaa !10
  %14 = sext i16 %13 to i32
  br label %16

._crit_edge:                                      ; preds = %9, %4
  %15 = tail call i32 %3(i32 noundef %0) #7
  br label %16

16:                                               ; preds = %11, %._crit_edge
  %.1 = phi i32 [ %14, %11 ], [ %15, %._crit_edge ]
  ret i32 %.1
}